; Function Attrs: mustprogress nofree norecurse nosync nounwind willreturn memory(read, inaccessiblemem: none) uwtable
define noundef zeroext i1 @_ZNK7rocksdb18PlainTableIterator5ValidEv(ptr nocapture noundef nonnull readonly align 8 dereferenceable(280) %this) unnamed_addr #12 align 2 {
entry:
  %offset_ = getelementptr inbounds i8, ptr %this, i64 220
  %0 = load i32, ptr %offset_, align 4
  %table_ = getelementptr inbounds i8, ptr %this, i64 40
  %1 = load ptr, ptr %table_, align 8
  %data_end_offset = getelementptr inbounds i8, ptr %1, i64 160
  %2 = load i32, ptr %data_end_offset, align 8
  %cmp = icmp ult i32 %0, %2
  br i1 %cmp, label %land.rhs, label %land.end

land.rhs:                                         ; preds = %entry
  %data_start_offset_ = getelementptr inbounds i8, ptr %1, i64 84
  %3 = load i32, ptr %data_start_offset_, align 4
  %cmp4 = icmp uge i32 %0, %3
  br label %land.end

land.end:                                         ; preds = %land.rhs, %entry
  %4 = phi i1 [ false, %entry ], [ %cmp4, %land.rhs ]
  ret i1 %4
}